Certificate:
    Data:
        Version: 3 (0x2)
        Serial Number: 2 (0x2)
    Signature Algorithm: sha256WithRSAEncryption
        Issuer: C=KR, ST=KK, L=Yong-in, O=MCLab, OU=OpenwinnetMCLAB, CN=MCLab CA/name=openwinnet/emailAddress=danielahn@khu.ac.kr
        Validity
            Not Before: Feb  4 15:12:18 2016 GMT
            Not After : Feb  1 15:12:18 2026 GMT
        Subject: C=KR, ST=KK, L=Yong-in, O=MCLab, OU=OpenwinnetMCLAB, CN=client/name=openwinnet/emailAddress=danielahn@khu.ac.kr
        Subject Public Key Info:
            Public Key Algorithm: rsaEncryption
                Public-Key: (2048 bit)
                Modulus:
                    00:d3:bc:8c:6c:25:1c:47:2f:40:2b:17:7e:a1:ef:
                    e3:71:8d:cc:64:f9:07:2c:ac:a8:11:c4:95:ee:bf:
                    3f:ce:3b:b7:22:bd:e2:68:22:f9:c2:e8:ac:5d:eb:
                    00:48:4f:20:27:16:16:b8:ad:96:ab:79:e6:e8:f4:
                    f9:6d:80:a4:ac:32:f6:b5:c1:00:11:9e:15:5e:64:
                    3e:f0:e5:db:f3:81:1b:54:4f:76:82:30:5a:3f:36:
                    56:75:87:66:0c:21:70:9b:f9:80:ef:6d:93:42:09:
                    43:5e:3f:5d:70:85:4b:0e:26:5b:99:b3:a7:65:47:
                    61:1e:2d:36:83:01:a6:3c:6e:7c:ab:d0:f6:fa:e6:
                    5a:2b:9c:cf:ac:b7:d9:02:bb:4a:b6:64:6e:cf:4c:
                    e4:9a:09:34:72:9a:30:35:ef:5e:f8:4c:9a:01:07:
                    ee:46:53:f6:8e:84:db:28:e6:80:d8:07:2e:75:59:
                    fc:b1:f6:6d:65:59:dc:66:b7:23:bb:de:36:8c:69:
                    e2:65:ac:87:3f:bb:eb:5d:98:f6:7d:c9:8f:42:89:
                    1d:33:41:20:eb:99:2c:b4:20:f2:e6:7a:8c:df:f6:
                    63:7e:75:37:c2:f5:be:54:06:e2:a6:82:1e:37:d8:
                    16:bc:b0:03:f3:ea:1d:b1:d7:9b:42:0e:f6:11:a1:
                    20:61
                Exponent: 65537 (0x10001)
        X509v3 extensions:
            X509v3 Basic Constraints: 
                CA:FALSE
            Netscape Comment: 
                Easy-RSA Generated Certificate
            X509v3 Subject Key Identifier: 
                D5:AF:85:1D:15:95:B0:EA:00:F2:AE:59:F3:6D:61:50:8A:34:F1:D8
            X509v3 Authority Key Identifier: 
                keyid:B1:2B:B6:73:25:E8:1F:77:4D:93:7A:4E:1F:66:7C:91:98:B1:B9:E6
                DirName:/C=KR/ST=KK/L=Yong-in/O=MCLab/OU=OpenwinnetMCLAB/CN=MCLab CA/name=openwinnet/emailAddress=danielahn@khu.ac.kr
                serial:87:D4:9C:CD:03:9F:E1:D4

            X509v3 Extended Key Usage: 
                TLS Web Client Authentication
            X509v3 Key Usage: 
                Digital Signature
            X509v3 Subject Alternative Name: 
                DNS:client
    Signature Algorithm: sha256WithRSAEncryption
         10:ef:60:87:a5:ed:d9:2d:f7:a9:18:28:22:a6:db:9e:6b:f8:
         ba:d3:87:23:cc:4a:62:72:fd:87:bb:36:44:3d:de:58:f1:d1:
         69:f6:ae:b1:78:8d:49:24:87:12:3b:69:2c:a4:bf:42:fa:96:
         16:67:ab:8f:64:b2:a9:48:5f:60:f0:e9:a2:bc:f8:f7:7b:58:
         19:70:93:15:a9:e1:63:f0:a8:2a:88:0b:53:64:39:33:c4:ab:
         a3:c1:4f:54:ae:09:41:16:ba:77:cf:b5:ef:b4:53:65:35:45:
         15:77:70:9e:3d:d2:bb:9d:83:8a:a4:00:b9:87:76:49:23:e2:
         9f:3e:67:52:e1:df:01:88:5c:8e:08:5b:d1:7c:1d:e4:17:ed:
         85:63:39:b8:7e:2f:75:e5:ba:66:4a:70:7b:9f:e1:aa:7f:f3:
         7f:04:3e:b0:cf:0a:1a:55:46:6f:ae:1b:8e:ea:7a:38:01:dd:
         97:5e:43:2d:ea:62:80:e2:4b:d3:df:7a:3c:b5:d2:69:1c:87:
         2a:8e:ff:36:51:47:8f:09:e3:b9:0d:44:6b:f3:e6:59:15:13:
         01:66:b6:e4:83:d0:3b:59:61:40:32:6a:5f:b8:b3:32:71:98:
         82:04:37:a9:65:05:64:ed:aa:b2:9b:ef:f5:6a:5b:ef:69:87:
         b3:25:0b:27
-----BEGIN CERTIFICATE-----
MIIFLTCCBBWgAwIBAgIBAjANBgkqhkiG9w0BAQsFADCBojELMAkGA1UEBhMCS1Ix
CzAJBgNVBAgTAktLMRAwDgYDVQQHEwdZb25nLWluMQ4wDAYDVQQKEwVNQ0xhYjEY
MBYGA1UECxMPT3Blbndpbm5ldE1DTEFCMREwDwYDVQQDEwhNQ0xhYiBDQTETMBEG
A1UEKRMKb3Blbndpbm5ldDEiMCAGCSqGSIb3DQEJARYTZGFuaWVsYWhuQGtodS5h
Yy5rcjAeFw0xNjAyMDQxNTEyMThaFw0yNjAyMDExNTEyMThaMIGgMQswCQYDVQQG
EwJLUjELMAkGA1UECBMCS0sxEDAOBgNVBAcTB1lvbmctaW4xDjAMBgNVBAoTBU1D
TGFiMRgwFgYDVQQLEw9PcGVud2lubmV0TUNMQUIxDzANBgNVBAMTBmNsaWVudDET
MBEGA1UEKRMKb3Blbndpbm5ldDEiMCAGCSqGSIb3DQEJARYTZGFuaWVsYWhuQGto
dS5hYy5rcjCCASIwDQYJKoZIhvcNAQEBBQADggEPADCCAQoCggEBANO8jGwlHEcv
QCsXfqHv43GNzGT5ByysqBHEle6/P847tyK94mgi+cLorF3rAEhPICcWFritlqt5
5uj0+W2ApKwy9rXBABGeFV5kPvDl2/OBG1RPdoIwWj82VnWHZgwhcJv5gO9tk0IJ
Q14/XXCFSw4mW5mzp2VHYR4tNoMBpjxufKvQ9vrmWiucz6y32QK7SrZkbs9M5JoJ
NHKaMDXvXvhMmgEH7kZT9o6E2yjmgNgHLnVZ/LH2bWVZ3Ga3I7veNoxp4mWshz+7
612Y9n3Jj0KJHTNBIOuZLLQg8uZ6jN/2Y351N8L1vlQG4qaCHjfYFrywA/PqHbHX
m0IO9hGhIGECAwEAAaOCAWwwggFoMAkGA1UdEwQCMAAwLQYJYIZIAYb4QgENBCAW
HkVhc3ktUlNBIEdlbmVyYXRlZCBDZXJ0aWZpY2F0ZTAdBgNVHQ4EFgQU1a+FHRWV
sOoA8q5Z821hUIo08dgwgdcGA1UdIwSBzzCBzIAUsSu2cyXoH3dNk3pOH2Z8kZix
ueahgaikgaUwgaIxCzAJBgNVBAYTAktSMQswCQYDVQQIEwJLSzEQMA4GA1UEBxMH
WW9uZy1pbjEOMAwGA1UEChMFTUNMYWIxGDAWBgNVBAsTD09wZW53aW5uZXRNQ0xB
QjERMA8GA1UEAxMITUNMYWIgQ0ExEzARBgNVBCkTCm9wZW53aW5uZXQxIjAgBgkq
hkiG9w0BCQEWE2RhbmllbGFobkBraHUuYWMua3KCCQCH1JzNA5/h1DATBgNVHSUE
DDAKBggrBgEFBQcDAjALBgNVHQ8EBAMCB4AwEQYDVR0RBAowCIIGY2xpZW50MA0G
CSqGSIb3DQEBCwUAA4IBAQAQ72CHpe3ZLfepGCgiptuea/i604cjzEpicv2HuzZE
Pd5Y8dFp9q6xeI1JJIcSO2kspL9C+pYWZ6uPZLKpSF9g8OmivPj3e1gZcJMVqeFj
8KgqiAtTZDkzxKujwU9UrglBFrp3z7XvtFNlNUUVd3CePdK7nYOKpAC5h3ZJI+Kf
PmdS4d8BiFyOCFvRfB3kF+2FYzm4fi915bpmSnB7n+Gqf/N/BD6wzwoaVUZvrhuO
6no4Ad2XXkMt6mKA4kvT33o8tdJpHIcqjv82UUePCeO5DURr8+ZZFRMBZrbkg9A7
WWFAMmpfuLMycZiCBDepZQVk7aqym+/1alvvaYezJQsn
-----END CERTIFICATE-----
